; Function Attrs: mustprogress uwtable
define hidden void @_ZN7datalog15rule_propertiesclEP3var(ptr noundef nonnull align 8 dereferenceable(258) %0, ptr noundef nonnull %1) local_unnamed_addr #3 align 2 {
  %3 = tail call noundef ptr @_ZNK4expr8get_sortEv(ptr noundef nonnull align 4 dereferenceable(16) %1)
  %4 = getelementptr inbounds nuw i8, ptr %3, i64 24
  %5 = load ptr, ptr %4, align 8, !tbaa !107
  %6 = getelementptr inbounds nuw i8, ptr %5, i64 24
  %.sroa.0.0.copyload.i = load i32, ptr %6, align 8, !tbaa !108
  %7 = getelementptr inbounds nuw i8, ptr %0, i64 128
  %8 = load i32, ptr %7, align 8, !tbaa !110
  %9 = load i32, ptr %5, align 8, !tbaa !111
  %10 = icmp eq i32 %9, %8
  br i1 %10, label %_ZNK17array_recognizers8is_arrayEP4sort.exit.i, label %_ZNK17array_recognizers8is_arrayEP4sort.exit.thread.i

_ZNK17array_recognizers8is_arrayEP4sort.exit.i:   ; preds = %2
  %11 = getelementptr inbounds nuw i8, ptr %5, i64 4
  %12 = load i32, ptr %11, align 4, !tbaa !115
  %13 = icmp eq i32 %12, 0
  br i1 %13, label %_ZNK7datalog12dl_decl_util12is_rule_sortEP4sort.exit.thread.i, label %_ZNK17array_recognizers8is_arrayEP4sort.exit.thread.i

_ZNK17array_recognizers8is_arrayEP4sort.exit.thread.i: ; preds = %_ZNK17array_recognizers8is_arrayEP4sort.exit.i, %2
  %14 = icmp eq i32 %.sroa.0.0.copyload.i, 0
  br i1 %14, label %_ZN7datalog15rule_properties10check_sortEP4sort.exit, label %15

15:                                               ; preds = %_ZNK17array_recognizers8is_arrayEP4sort.exit.thread.i
  %16 = getelementptr inbounds nuw i8, ptr %0, i64 56
  %17 = tail call noundef i32 @_ZNK7datalog12dl_decl_util13get_family_idEv(ptr noundef nonnull align 8 dereferenceable(28) %16)
  %18 = load ptr, ptr %4, align 8, !tbaa !107
  %19 = icmp eq ptr %18, null
  br i1 %19, label %_ZNK7datalog12dl_decl_util12is_rule_sortEP4sort.exit.thread.i, label %_ZNK4decl13get_family_idEv.exit.thread.i.i.i4.i

_ZNK4decl13get_family_idEv.exit.thread.i.i.i4.i:  ; preds = %15
  %20 = load i32, ptr %18, align 8, !tbaa !111
  %21 = icmp eq i32 %20, %17
  br i1 %21, label %_ZNK7datalog12dl_decl_util12is_rule_sortEP4sort.exit.i, label %_ZNK7datalog12dl_decl_util12is_rule_sortEP4sort.exit.thread.i

_ZNK7datalog12dl_decl_util12is_rule_sortEP4sort.exit.i: ; preds = %_ZNK4decl13get_family_idEv.exit.thread.i.i.i4.i
  %22 = getelementptr inbounds nuw i8, ptr %18, i64 4
  %23 = load i32, ptr %22, align 4, !tbaa !115
  %24 = icmp eq i32 %23, 2
  br i1 %24, label %_ZN7datalog15rule_properties10check_sortEP4sort.exit, label %_ZNK7datalog12dl_decl_util12is_rule_sortEP4sort.exit.thread.i

_ZNK7datalog12dl_decl_util12is_rule_sortEP4sort.exit.thread.i: ; preds = %_ZNK7datalog12dl_decl_util12is_rule_sortEP4sort.exit.i, %_ZNK4decl13get_family_idEv.exit.thread.i.i.i4.i, %15, %_ZNK17array_recognizers8is_arrayEP4sort.exit.i
  %25 = getelementptr inbounds nuw i8, ptr %0, i64 248
  %26 = getelementptr inbounds nuw i8, ptr %0, i64 176
  %27 = load ptr, ptr %25, align 8, !tbaa !77
  %28 = icmp eq ptr %27, null
  br i1 %28, label %35, label %29

29:                                               ; preds = %_ZNK7datalog12dl_decl_util12is_rule_sortEP4sort.exit.thread.i
  %30 = getelementptr inbounds i8, ptr %27, i64 -4
  %31 = load i32, ptr %30, align 4, !tbaa !78
  %32 = getelementptr inbounds i8, ptr %27, i64 -8
  %33 = load i32, ptr %32, align 4, !tbaa !78
  %34 = icmp eq i32 %31, %33
  br i1 %34, label %35, label %_ZN6vectorIPN7datalog4ruleELb0EjE9push_backERKS2_.exit.i

35:                                               ; preds = %29, %_ZNK7datalog12dl_decl_util12is_rule_sortEP4sort.exit.thread.i
  tail call void @_ZN6vectorIPN7datalog4ruleELb0EjE13expand_vectorEv(ptr noundef nonnull align 8 dereferenceable(8) %25)
  %.pre.i.i = load ptr, ptr %25, align 8, !tbaa !77
  %.phi.trans.insert.i.i = getelementptr inbounds i8, ptr %.pre.i.i, i64 -4
  %.pre2.i.i = load i32, ptr %.phi.trans.insert.i.i, align 4, !tbaa !78
  br label %_ZN6vectorIPN7datalog4ruleELb0EjE9push_backERKS2_.exit.i

_ZN6vectorIPN7datalog4ruleELb0EjE9push_backERKS2_.exit.i: ; preds = %35, %29
  %36 = phi i32 [ %.pre2.i.i, %35 ], [ %31, %29 ]
  %37 = phi ptr [ %.pre.i.i, %35 ], [ %27, %29 ]
  %38 = getelementptr inbounds i8, ptr %37, i64 -4
  %39 = zext i32 %36 to i64
  %40 = getelementptr inbounds nuw ptr, ptr %37, i64 %39
  %41 = load ptr, ptr %26, align 8, !tbaa !79
  store ptr %41, ptr %40, align 8, !tbaa !79
  %42 = add i32 %36, 1
  store i32 %42, ptr %38, align 4, !tbaa !78
  br label %_ZN7datalog15rule_properties10check_sortEP4sort.exit

_ZN7datalog15rule_properties10check_sortEP4sort.exit: ; preds = %_ZNK17array_recognizers8is_arrayEP4sort.exit.thread.i, %_ZNK7datalog12dl_decl_util12is_rule_sortEP4sort.exit.i, %_ZN6vectorIPN7datalog4ruleELb0EjE9push_backERKS2_.exit.i
  ret void
}